target datalayout = "e-m:e-p270:32:32-p271:32:32-p272:64:64-i64:64-i128:128-f80:128-n8:16:32:64-S128"
target triple = "x86_64-pc-linux-gnu"

%"class.grpc_core::Combiner" = type { ptr, %"class.grpc_core::MultiProducerSingleConsumerQueue", i64, i64, i8, %struct.grpc_closure_list, %struct.grpc_closure, %struct.gpr_refcount, %"class.std::shared_ptr" }
%"class.grpc_core::MultiProducerSingleConsumerQueue" = type { %union.anon, ptr, %"struct.grpc_core::MultiProducerSingleConsumerQueue::Node" }
%union.anon = type { %"struct.std::atomic", [56 x i8] }
%"struct.std::atomic" = type { %"struct.std::__atomic_base" }
%"struct.std::__atomic_base" = type { ptr }
%"struct.grpc_core::MultiProducerSingleConsumerQueue::Node" = type { %"struct.std::atomic" }
%struct.grpc_closure_list = type { ptr, ptr }
%struct.grpc_closure = type { %union.anon.0, ptr, ptr, %union.anon.1 }
%union.anon.0 = type { ptr }
%union.anon.1 = type { i64 }
%struct.gpr_refcount = type { i64 }
%"class.std::shared_ptr" = type { %"class.std::__shared_ptr" }
%"class.std::__shared_ptr" = type { ptr, %"class.std::__shared_count" }
%"class.std::__shared_count" = type { ptr }
%"struct.grpc_core::ExecCtx::CombinerData" = type { ptr, ptr }
%"class.grpc_core::ExecCtx" = type { ptr, %struct.grpc_closure_list, %"struct.grpc_core::ExecCtx::CombinerData", i64, %"class.std::optional", ptr }
%"class.std::optional" = type { %"struct.std::_Optional_base" }
%"struct.std::_Optional_base" = type { %"struct.std::_Optional_payload" }
%"struct.std::_Optional_payload" = type { %"struct.std::_Optional_payload.base.9", [7 x i8] }
%"struct.std::_Optional_payload.base.9" = type { %"struct.std::_Optional_payload_base.base.8" }
%"struct.std::_Optional_payload_base.base.8" = type <{ %"union.std::_Optional_payload_base<grpc_core::ScopedTimeCache>::_Storage", i8 }>
%"union.std::_Optional_payload_base<grpc_core::ScopedTimeCache>::_Storage" = type { %"class.grpc_core::ScopedTimeCache" }
%"class.grpc_core::ScopedTimeCache" = type { %"class.grpc_core::Timestamp::ScopedSource", %"class.std::optional.3" }
%"class.grpc_core::Timestamp::ScopedSource" = type { %"class.grpc_core::Timestamp::Source", ptr }
%"class.grpc_core::Timestamp::Source" = type { ptr }
%"class.std::optional.3" = type { %"struct.std::_Optional_base.4" }
%"struct.std::_Optional_base.4" = type { %"struct.std::_Optional_payload.6" }
%"struct.std::_Optional_payload.6" = type { %"struct.std::_Optional_payload_base.base", [7 x i8] }
%"struct.std::_Optional_payload_base.base" = type <{ %"union.std::_Optional_payload_base<grpc_core::Timestamp>::_Storage", i8 }>
%"union.std::_Optional_payload_base<grpc_core::Timestamp>::_Storage" = type { %"class.grpc_core::Timestamp" }
%"class.grpc_core::Timestamp" = type { i64 }
%"class.absl::lts_20240722::AnyInvocable" = type { %"class.absl::lts_20240722::internal_any_invocable::Impl" }
%"class.absl::lts_20240722::internal_any_invocable::Impl" = type { %"class.absl::lts_20240722::internal_any_invocable::CoreImpl" }
%"class.absl::lts_20240722::internal_any_invocable::CoreImpl" = type { %"union.absl::lts_20240722::internal_any_invocable::TypeErasedState", ptr, ptr }
%"union.absl::lts_20240722::internal_any_invocable::TypeErasedState" = type { %struct.anon }
%struct.anon = type { ptr, i64 }
%class.anon = type { ptr }

@_ZN9grpc_core7ExecCtx9exec_ctx_E = external thread_local global ptr, align 8

; Function Attrs: mustprogress nounwind uwtable
define internal void @"_ZN4absl12lts_2024072222internal_any_invocable8CoreImplILb0EvJEE22InitializeLocalManagerIZL13queue_offloadPN9grpc_core8CombinerEE3$_0vEEvv"(ptr noundef nonnull align 16 dereferenceable(32) %0) #10 align 2 {
  %2 = alloca ptr, align 8
  store ptr %0, ptr %2, align 8, !tbaa !112
  %3 = load ptr, ptr %2, align 8
  %4 = getelementptr inbounds nuw %"class.absl::lts_20240722::internal_any_invocable::CoreImpl", ptr %3, i32 0, i32 1
  store ptr @_ZN4absl12lts_2024072222internal_any_invocable19LocalManagerTrivialENS1_14FunctionToCallEPNS1_15TypeErasedStateES4_, ptr %4, align 16, !tbaa !114
  ret void
}

; Function Attrs: mustprogress uwtable
define internal void @"_ZN4absl12lts_2024072222internal_any_invocable8CoreImplILb0EvJEE17InitializeStorageIRZL13queue_offloadPN9grpc_core8CombinerEE3$_0JS8_EvEEvDpOT0_"(ptr noundef nonnull align 16 dereferenceable(32) %0, ptr noundef nonnull align 8 dereferenceable(8) %1) #4 align 2 {
  %3 = alloca ptr, align 8
  %4 = alloca ptr, align 8
  store ptr %0, ptr %3, align 8, !tbaa !112
  store ptr %1, ptr %4, align 8, !tbaa !111
  %5 = load ptr, ptr %3, align 8
  %6 = getelementptr inbounds nuw %"class.absl::lts_20240722::internal_any_invocable::CoreImpl", ptr %5, i32 0, i32 0
  %7 = load ptr, ptr %4, align 8, !tbaa !111
  call void @llvm.memcpy.p0.p0.i64(ptr align 8 %6, ptr align 8 %7, i64 8, i1 false), !tbaa.struct !120
  %8 = getelementptr inbounds nuw %"class.absl::lts_20240722::internal_any_invocable::CoreImpl", ptr %5, i32 0, i32 2
  store ptr @"_ZN4absl12lts_2024072222internal_any_invocable12LocalInvokerILb0EvRZL13queue_offloadPN9grpc_core8CombinerEE3$_0JEEET0_PNS1_15TypeErasedStateEDpNS1_18ForwardedParameterIT2_E4typeE", ptr %8, align 8, !tbaa !121
  call void @"_ZN4absl12lts_2024072222internal_any_invocable8CoreImplILb0EvJEE22InitializeLocalManagerIZL13queue_offloadPN9grpc_core8CombinerEE3$_0vEEvv"(ptr noundef nonnull align 16 dereferenceable(32) %5)
  ret void
}

; Function Attrs: mustprogress uwtable
define internal void @"_ZN4absl12lts_2024072222internal_any_invocable8CoreImplILb0EvJEE10InitializeILNS3_10TargetTypeE3ERZL13queue_offloadPN9grpc_core8CombinerEE3$_0S9_vEEvOT1_"(ptr noundef nonnull align 16 dereferenceable(32) %0, ptr noundef nonnull align 8 dereferenceable(8) %1) #4 align 2 {
  %3 = alloca ptr, align 8
  %4 = alloca ptr, align 8
  store ptr %0, ptr %3, align 8, !tbaa !112
  store ptr %1, ptr %4, align 8, !tbaa !111
  %5 = load ptr, ptr %3, align 8
  %6 = load ptr, ptr %4, align 8, !tbaa !111
  call void @"_ZN4absl12lts_2024072222internal_any_invocable8CoreImplILb0EvJEE17InitializeStorageIRZL13queue_offloadPN9grpc_core8CombinerEE3$_0JS8_EvEEvDpOT0_"(ptr noundef nonnull align 16 dereferenceable(32) %5, ptr noundef nonnull align 8 dereferenceable(8) %6)
  ret void
}

; Function Attrs: mustprogress uwtable
define internal void @"_ZN4absl12lts_2024072222internal_any_invocable8CoreImplILb0EvJEEC2IRZL13queue_offloadPN9grpc_core8CombinerEE3$_0S8_EENS1_24TypedConversionConstructIT_EEOT0_"(ptr noundef nonnull align 16 dereferenceable(32) %0, ptr noundef nonnull align 8 dereferenceable(8) %1) unnamed_addr #4 align 2 {
  %3 = alloca ptr, align 8
  %4 = alloca ptr, align 8
  %5 = alloca i32, align 4
  store ptr %0, ptr %3, align 8, !tbaa !112
  store ptr %1, ptr %4, align 8, !tbaa !111
  %6 = load ptr, ptr %3, align 8
  call void @llvm.lifetime.start.p0(i64 4, ptr %5) #3
  store i32 3, ptr %5, align 4, !tbaa !118
  %7 = load ptr, ptr %4, align 8, !tbaa !111
  call void @"_ZN4absl12lts_2024072222internal_any_invocable8CoreImplILb0EvJEE10InitializeILNS3_10TargetTypeE3ERZL13queue_offloadPN9grpc_core8CombinerEE3$_0S9_vEEvOT1_"(ptr noundef nonnull align 16 dereferenceable(32) %6, ptr noundef nonnull align 8 dereferenceable(8) %7)
  call void @llvm.lifetime.end.p0(i64 4, ptr %5) #3
  ret void
}

; Function Attrs: mustprogress nounwind uwtable
define linkonce_odr noundef ptr @_ZNKSt12__shared_ptrIN17grpc_event_engine12experimental11EventEngineELN9__gnu_cxx12_Lock_policyE2EE3getEv(ptr noundef nonnull align 8 dereferenceable(16) %0) #10 comdat align 2 {
  %2 = alloca ptr, align 8
  store ptr %0, ptr %2, align 8, !tbaa !91
  %3 = load ptr, ptr %2, align 8
  %4 = getelementptr inbounds nuw %"class.std::__shared_ptr", ptr %3, i32 0, i32 0
  %5 = load ptr, ptr %4, align 8, !tbaa !93
  ret ptr %5
}

; Function Attrs: uwtable
define linkonce_odr hidden noundef ptr @_ZTWN9grpc_core7ExecCtx9exec_ctx_E() #21 comdat {
  %1 = icmp ne ptr @_ZTHN9grpc_core7ExecCtx9exec_ctx_E, null
  br i1 %1, label %2, label %3

2:                                                ; preds = %0
  call void @_ZTHN9grpc_core7ExecCtx9exec_ctx_E()
  br label %3

3:                                                ; preds = %2, %0
  %4 = call align 8 ptr @llvm.threadlocal.address.p0(ptr align 8 @_ZN9grpc_core7ExecCtx9exec_ctx_E)
  ret ptr %4
}

; Function Attrs: mustprogress uwtable
define internal void @"_ZN4absl12lts_2024072222internal_any_invocable4ImplIFvvEEC2IZL13queue_offloadPN9grpc_core8CombinerEE3$_0EENS1_19ConversionConstructEOT_"(ptr noundef nonnull align 16 dereferenceable(32) %0, ptr noundef nonnull align 8 dereferenceable(8) %1) unnamed_addr #4 align 2 {
  %3 = alloca ptr, align 8
  %4 = alloca ptr, align 8
  store ptr %0, ptr %3, align 8, !tbaa !116
  store ptr %1, ptr %4, align 8, !tbaa !111
  %5 = load ptr, ptr %3, align 8
  %6 = load ptr, ptr %4, align 8, !tbaa !111
  call void @"_ZN4absl12lts_2024072222internal_any_invocable8CoreImplILb0EvJEEC2IRZL13queue_offloadPN9grpc_core8CombinerEE3$_0S8_EENS1_24TypedConversionConstructIT_EEOT0_"(ptr noundef nonnull align 16 dereferenceable(32) %5, ptr noundef nonnull align 8 dereferenceable(8) %6)
  ret void
}

; Function Attrs: mustprogress nounwind uwtable
define linkonce_odr noundef ptr @_ZNKSt19__shared_ptr_accessIN17grpc_event_engine12experimental11EventEngineELN9__gnu_cxx12_Lock_policyE2ELb0ELb0EE6_M_getEv(ptr noundef nonnull align 1 dereferenceable(1) %0) #10 comdat align 2 {
  %2 = alloca ptr, align 8
  store ptr %0, ptr %2, align 8, !tbaa !107
  %3 = load ptr, ptr %2, align 8
  %4 = call noundef ptr @_ZNKSt12__shared_ptrIN17grpc_event_engine12experimental11EventEngineELN9__gnu_cxx12_Lock_policyE2EE3getEv(ptr noundef nonnull align 8 dereferenceable(16) %3) #3
  ret ptr %4
}

; Function Attrs: mustprogress nounwind uwtable
define linkonce_odr noundef ptr @_ZN9grpc_core7ExecCtx13combiner_dataEv(ptr noundef nonnull align 8 dereferenceable(96) %0) #10 comdat align 2 {
  %2 = alloca ptr, align 8
  store ptr %0, ptr %2, align 8, !tbaa !54
  %3 = load ptr, ptr %2, align 8
  %4 = getelementptr inbounds nuw %"class.grpc_core::ExecCtx", ptr %3, i32 0, i32 2
  ret ptr %4
}

; Function Attrs: mustprogress uwtable
define linkonce_odr noundef ptr @_ZN9grpc_core7ExecCtx3GetEv() #4 comdat align 2 {
  %1 = call ptr @_ZTWN9grpc_core7ExecCtx9exec_ctx_E()
  %2 = load ptr, ptr %1, align 8, !tbaa !54
  ret ptr %2
}

; Function Attrs: mustprogress nounwind uwtable
define linkonce_odr void @_ZN4absl12lts_2024072222internal_any_invocable8CoreImplILb0EvJEED2Ev(ptr noundef nonnull align 16 dereferenceable(32) %0) unnamed_addr #10 comdat align 2 {
  %2 = alloca ptr, align 8
  store ptr %0, ptr %2, align 8, !tbaa !112
  %3 = load ptr, ptr %2, align 8
  %4 = getelementptr inbounds nuw %"class.absl::lts_20240722::internal_any_invocable::CoreImpl", ptr %3, i32 0, i32 1
  %5 = load ptr, ptr %4, align 16, !tbaa !114
  %6 = getelementptr inbounds nuw %"class.absl::lts_20240722::internal_any_invocable::CoreImpl", ptr %3, i32 0, i32 0
  %7 = getelementptr inbounds nuw %"class.absl::lts_20240722::internal_any_invocable::CoreImpl", ptr %3, i32 0, i32 0
  call void %5(i1 noundef zeroext true, ptr noundef %6, ptr noundef %7) #3
  ret void
}

; Function Attrs: mustprogress uwtable
define internal void @"_ZN4absl12lts_2024072212AnyInvocableIFvvEEC2IZL13queue_offloadPN9grpc_core8CombinerEE3$_0vEEOT_"(ptr noundef nonnull align 16 dereferenceable(32) %0, ptr noundef nonnull align 8 dereferenceable(8) %1) unnamed_addr #4 align 2 {
  %3 = alloca ptr, align 8
  %4 = alloca ptr, align 8
  store ptr %0, ptr %3, align 8, !tbaa !109
  store ptr %1, ptr %4, align 8, !tbaa !111
  %5 = load ptr, ptr %3, align 8
  %6 = load ptr, ptr %4, align 8, !tbaa !111
  call void @"_ZN4absl12lts_2024072222internal_any_invocable4ImplIFvvEEC2IZL13queue_offloadPN9grpc_core8CombinerEE3$_0EENS1_19ConversionConstructEOT_"(ptr noundef nonnull align 16 dereferenceable(32) %5, ptr noundef nonnull align 8 dereferenceable(8) %6)
  ret void
}

; Function Attrs: mustprogress nounwind uwtable
define linkonce_odr noundef ptr @_ZNKSt19__shared_ptr_accessIN17grpc_event_engine12experimental11EventEngineELN9__gnu_cxx12_Lock_policyE2ELb0ELb0EEptEv(ptr noundef nonnull align 1 dereferenceable(1) %0) #10 comdat align 2 {
  %2 = alloca ptr, align 8
  store ptr %0, ptr %2, align 8, !tbaa !107
  %3 = load ptr, ptr %2, align 8
  %4 = call noundef ptr @_ZNKSt19__shared_ptr_accessIN17grpc_event_engine12experimental11EventEngineELN9__gnu_cxx12_Lock_policyE2ELb0ELb0EE6_M_getEv(ptr noundef nonnull align 1 dereferenceable(1) %3) #3
  ret ptr %4
}

; Function Attrs: mustprogress uwtable
define internal void @_ZL9move_nextv() #4 {
  %1 = call noundef ptr @_ZN9grpc_core7ExecCtx3GetEv()
  %2 = call noundef ptr @_ZN9grpc_core7ExecCtx13combiner_dataEv(ptr noundef nonnull align 8 dereferenceable(96) %1)
  %3 = getelementptr inbounds nuw %"struct.grpc_core::ExecCtx::CombinerData", ptr %2, i32 0, i32 0
  %4 = load ptr, ptr %3, align 8, !tbaa !34
  %5 = getelementptr inbounds nuw %"class.grpc_core::Combiner", ptr %4, i32 0, i32 0
  %6 = load ptr, ptr %5, align 8, !tbaa !12
  %7 = call noundef ptr @_ZN9grpc_core7ExecCtx3GetEv()
  %8 = call noundef ptr @_ZN9grpc_core7ExecCtx13combiner_dataEv(ptr noundef nonnull align 8 dereferenceable(96) %7)
  %9 = getelementptr inbounds nuw %"struct.grpc_core::ExecCtx::CombinerData", ptr %8, i32 0, i32 0
  store ptr %6, ptr %9, align 8, !tbaa !34
  %10 = call noundef ptr @_ZN9grpc_core7ExecCtx3GetEv()
  %11 = call noundef ptr @_ZN9grpc_core7ExecCtx13combiner_dataEv(ptr noundef nonnull align 8 dereferenceable(96) %10)
  %12 = getelementptr inbounds nuw %"struct.grpc_core::ExecCtx::CombinerData", ptr %11, i32 0, i32 0
  %13 = load ptr, ptr %12, align 8, !tbaa !34
  %14 = icmp eq ptr %13, null
  br i1 %14, label %15, label %19

15:                                               ; preds = %0
  %16 = call noundef ptr @_ZN9grpc_core7ExecCtx3GetEv()
  %17 = call noundef ptr @_ZN9grpc_core7ExecCtx13combiner_dataEv(ptr noundef nonnull align 8 dereferenceable(96) %16)
  %18 = getelementptr inbounds nuw %"struct.grpc_core::ExecCtx::CombinerData", ptr %17, i32 0, i32 1
  store ptr null, ptr %18, align 8, !tbaa !82
  br label %19

19:                                               ; preds = %15, %0
  ret void
}

; Function Attrs: mustprogress uwtable
define internal void @_ZL13queue_offloadPN9grpc_core8CombinerE(ptr noundef %0) #4 personality ptr @__gxx_personality_v0 {
  %2 = alloca ptr, align 8
  %3 = alloca i64, align 8
  %4 = alloca %"class.absl::lts_20240722::AnyInvocable", align 16
  %5 = alloca %class.anon, align 8
  %6 = alloca ptr, align 8
  %7 = alloca i32, align 4
  store ptr %0, ptr %2, align 8, !tbaa !8
  call void @_ZL9move_nextv()
  %8 = load ptr, ptr %2, align 8, !tbaa !8
  %9 = getelementptr inbounds nuw %"class.grpc_core::Combiner", ptr %8, i32 0, i32 2
  store i64 1, ptr %3, align 8, !tbaa !10
  %10 = load i64, ptr %3, align 8
  store atomic i64 %10, ptr %9 monotonic, align 8
  %11 = load ptr, ptr %2, align 8, !tbaa !8
  %12 = getelementptr inbounds nuw %"class.grpc_core::Combiner", ptr %11, i32 0, i32 8
  %13 = call noundef ptr @_ZNKSt19__shared_ptr_accessIN17grpc_event_engine12experimental11EventEngineELN9__gnu_cxx12_Lock_policyE2ELb0ELb0EEptEv(ptr noundef nonnull align 1 dereferenceable(1) %12) #3
  call void @llvm.lifetime.start.p0(i64 8, ptr %5) #3
  %14 = getelementptr inbounds nuw %class.anon, ptr %5, i32 0, i32 0
  %15 = load ptr, ptr %2, align 8, !tbaa !8
  store ptr %15, ptr %14, align 8, !tbaa !65
  call void @"_ZN4absl12lts_2024072212AnyInvocableIFvvEEC2IZL13queue_offloadPN9grpc_core8CombinerEE3$_0vEEOT_"(ptr noundef nonnull align 16 dereferenceable(32) %4, ptr noundef nonnull align 8 dereferenceable(8) %5)
  %16 = load ptr, ptr %13, align 8, !tbaa !63
  %17 = getelementptr inbounds ptr, ptr %16, i64 9
  %18 = load ptr, ptr %17, align 8
  invoke void %18(ptr noundef nonnull align 8 dereferenceable(24) %13, ptr noundef %4)
          to label %19 unwind label %20

19:                                               ; preds = %1
  call void @_ZN4absl12lts_2024072222internal_any_invocable8CoreImplILb0EvJEED2Ev(ptr noundef nonnull align 16 dereferenceable(32) %4) #3
  call void @llvm.lifetime.end.p0(i64 8, ptr %5) #3
  ret void

20:                                               ; preds = %1
  %21 = landingpad { ptr, i32 }
          cleanup
  %22 = extractvalue { ptr, i32 } %21, 0
  store ptr %22, ptr %6, align 8
  %23 = extractvalue { ptr, i32 } %21, 1
  store i32 %23, ptr %7, align 4
  call void @_ZN4absl12lts_2024072222internal_any_invocable8CoreImplILb0EvJEED2Ev(ptr noundef nonnull align 16 dereferenceable(32) %4) #3
  call void @llvm.lifetime.end.p0(i64 8, ptr %5) #3
  br label %24

24:                                               ; preds = %20
  %25 = load ptr, ptr %6, align 8
  %26 = load i32, ptr %7, align 4
  %27 = insertvalue { ptr, i32 } poison, ptr %25, 0
  %28 = insertvalue { ptr, i32 } %27, i32 %26, 1
  resume { ptr, i32 } %28
}