; Function Attrs: uwtable
define internal fastcc void @_ZL13queue_offloadPN9grpc_core8CombinerE(ptr noundef nonnull %0) unnamed_addr #8 personality ptr @__gxx_personality_v0 {
  %2 = alloca %"class.absl::lts_20240722::AnyInvocable", align 16
  %.not.i.i.i = icmp eq ptr @_ZTHN9grpc_core7ExecCtx9exec_ctx_E, null
  br i1 %.not.i.i.i, label %_ZN9grpc_core7ExecCtx3GetEv.exit4.i, label %_ZN9grpc_core7ExecCtx3GetEv.exit4.thread.i

_ZN9grpc_core7ExecCtx3GetEv.exit4.i:              ; preds = %1
  %3 = tail call noundef align 8 ptr @llvm.threadlocal.address.p0(ptr align 8 @_ZN9grpc_core7ExecCtx9exec_ctx_E)
  %4 = load ptr, ptr %3, align 8, !tbaa !44
  %5 = getelementptr inbounds nuw i8, ptr %4, i64 24
  %6 = load ptr, ptr %5, align 8, !tbaa !46
  %7 = load ptr, ptr %6, align 8, !tbaa !64
  store ptr %7, ptr %5, align 8, !tbaa !46
  %8 = icmp eq ptr %7, null
  br i1 %8, label %_ZN9grpc_core7ExecCtx3GetEv.exit6.i, label %_ZL9move_nextv.exit

_ZN9grpc_core7ExecCtx3GetEv.exit4.thread.i:       ; preds = %1
  tail call void @_ZTHN9grpc_core7ExecCtx9exec_ctx_E()
  %9 = tail call noundef align 8 ptr @llvm.threadlocal.address.p0(ptr align 8 @_ZN9grpc_core7ExecCtx9exec_ctx_E)
  %10 = load ptr, ptr %9, align 8, !tbaa !44
  %11 = getelementptr inbounds nuw i8, ptr %10, i64 24
  %12 = load ptr, ptr %11, align 8, !tbaa !46
  %13 = load ptr, ptr %12, align 8, !tbaa !64
  tail call void @_ZTHN9grpc_core7ExecCtx9exec_ctx_E()
  %14 = load ptr, ptr %9, align 8, !tbaa !44
  %15 = getelementptr inbounds nuw i8, ptr %14, i64 24
  store ptr %13, ptr %15, align 8, !tbaa !46
  tail call void @_ZTHN9grpc_core7ExecCtx9exec_ctx_E()
  %16 = load ptr, ptr %9, align 8, !tbaa !44
  %17 = getelementptr inbounds nuw i8, ptr %16, i64 24
  %18 = load ptr, ptr %17, align 8, !tbaa !46
  %19 = icmp eq ptr %18, null
  br i1 %19, label %.thread.i, label %_ZL9move_nextv.exit

.thread.i:                                        ; preds = %_ZN9grpc_core7ExecCtx3GetEv.exit4.thread.i
  tail call void @_ZTHN9grpc_core7ExecCtx9exec_ctx_E()
  %.pre.i = load ptr, ptr %9, align 8, !tbaa !44
  br label %_ZN9grpc_core7ExecCtx3GetEv.exit6.i

_ZN9grpc_core7ExecCtx3GetEv.exit6.i:              ; preds = %.thread.i, %_ZN9grpc_core7ExecCtx3GetEv.exit4.i
  %20 = phi ptr [ %.pre.i, %.thread.i ], [ %4, %_ZN9grpc_core7ExecCtx3GetEv.exit4.i ]
  %21 = getelementptr inbounds nuw i8, ptr %20, i64 32
  store ptr null, ptr %21, align 8, !tbaa !65
  br label %_ZL9move_nextv.exit

_ZL9move_nextv.exit:                              ; preds = %_ZN9grpc_core7ExecCtx3GetEv.exit4.i, %_ZN9grpc_core7ExecCtx3GetEv.exit4.thread.i, %_ZN9grpc_core7ExecCtx3GetEv.exit6.i
  %22 = getelementptr inbounds nuw i8, ptr %0, i64 88
  store atomic i64 1, ptr %22 monotonic, align 8
  %23 = getelementptr inbounds nuw i8, ptr %0, i64 168
  %24 = load ptr, ptr %23, align 8, !tbaa !27
  %25 = ptrtoint ptr %0 to i64
  store i64 %25, ptr %2, align 16, !tbaa !67
  %26 = getelementptr inbounds nuw i8, ptr %2, i64 24
  store ptr @"_ZN4absl12lts_2024072222internal_any_invocable12LocalInvokerILb0EvRZL13queue_offloadPN9grpc_core8CombinerEE3$_0JEEET0_PNS1_15TypeErasedStateEDpNS1_18ForwardedParameterIT2_E4typeE", ptr %26, align 8, !tbaa !68
  %27 = getelementptr inbounds nuw i8, ptr %2, i64 16
  store ptr @_ZN4absl12lts_2024072222internal_any_invocable19LocalManagerTrivialENS1_14FunctionToCallEPNS1_15TypeErasedStateES4_, ptr %27, align 16, !tbaa !70
  %28 = load ptr, ptr %24, align 8, !tbaa !35
  %29 = getelementptr inbounds nuw i8, ptr %28, i64 72
  %30 = load ptr, ptr %29, align 8
  invoke void %30(ptr noundef nonnull align 8 dereferenceable(24) %24, ptr noundef nonnull %2)
          to label %31 unwind label %33

31:                                               ; preds = %_ZL9move_nextv.exit
  %32 = load ptr, ptr %27, align 16, !tbaa !70
  call void %32(i1 noundef zeroext true, ptr noundef nonnull align 16 dereferenceable(32) %2, ptr noundef nonnull align 16 dereferenceable(32) %2) #24
  ret void

33:                                               ; preds = %_ZL9move_nextv.exit
  %34 = landingpad { ptr, i32 }
          cleanup
  %35 = load ptr, ptr %27, align 16, !tbaa !70
  call void %35(i1 noundef zeroext true, ptr noundef nonnull align 16 dereferenceable(32) %2, ptr noundef nonnull align 16 dereferenceable(32) %2) #24
  resume { ptr, i32 } %34
}